
_main:

;MyProject.c,176 :: 		void main()
;MyProject.c,179 :: 		TRISB=255;
	MOVLW      255
	MOVWF      TRISB+0
;MyProject.c,180 :: 		TRISA=255;
	MOVLW      255
	MOVWF      TRISA+0
;MyProject.c,181 :: 		TRISD=0;
	CLRF       TRISD+0
;MyProject.c,182 :: 		INTCON.GIE = 1;  //(Activer les interruptions)
	BSF        INTCON+0, 7
;MyProject.c,183 :: 		INTCON.RBIE = 1; //(Activer les interruptions RB4-->RB7)
	BSF        INTCON+0, 3
;MyProject.c,185 :: 		OPTION_REG.INTEDG= 1 ;  //Front Montant RB0
	BSF        OPTION_REG+0, 6
;MyProject.c,186 :: 		intrp_ouv=0;
	CLRF       _intrp_ouv+0
	CLRF       _intrp_ouv+1
;MyProject.c,187 :: 		pluie=0;
	CLRF       _pluie+0
	CLRF       _pluie+1
;MyProject.c,188 :: 		nb_panne=0;
	CLRF       _nb_panne+0
	CLRF       _nb_panne+1
;MyProject.c,189 :: 		consulter=0;
	CLRF       _consulter+0
	CLRF       _consulter+1
;MyProject.c,190 :: 		intrp_ferm=0;
	CLRF       _intrp_ferm+0
	CLRF       _intrp_ferm+1
;MyProject.c,191 :: 		adcValue=0;
	CLRF       _adcValue+0
	CLRF       _adcValue+1
	CLRF       _adcValue+2
	CLRF       _adcValue+3
;MyProject.c,192 :: 		test_arrosage =0;
	CLRF       _test_arrosage+0
	CLRF       _test_arrosage+1
;MyProject.c,193 :: 		variable =0;
	CLRF       _variable+0
	CLRF       _variable+1
;MyProject.c,194 :: 		test_panne=0;
	CLRF       _test_panne+0
	CLRF       _test_panne+1
;MyProject.c,195 :: 		Lcd_Init();
	CALL       _Lcd_Init+0
;MyProject.c,196 :: 		ADC_Init();
	CALL       _ADC_Init+0
;MyProject.c,197 :: 		Lcd_Cmd(_LCD_CLEAR);
	MOVLW      1
	MOVWF      FARG_Lcd_Cmd_out_char+0
	CALL       _Lcd_Cmd+0
;MyProject.c,198 :: 		Lcd_Cmd(_LCD_CURSOR_OFF);   // Clear display
	MOVLW      12
	MOVWF      FARG_Lcd_Cmd_out_char+0
	CALL       _Lcd_Cmd+0
;MyProject.c,200 :: 		Lcd_Out(1, 1, "Smart Garden!!");
	MOVLW      1
	MOVWF      FARG_Lcd_Out_row+0
	MOVLW      1
	MOVWF      FARG_Lcd_Out_column+0
	MOVLW      ?lstr1_MyProject+0
	MOVWF      FARG_Lcd_Out_text+0
	CALL       _Lcd_Out+0
;MyProject.c,201 :: 		delay_ms(500);
	MOVLW      6
	MOVWF      R11+0
	MOVLW      19
	MOVWF      R12+0
	MOVLW      173
	MOVWF      R13+0
L_main0:
	DECFSZ     R13+0, 1
	GOTO       L_main0
	DECFSZ     R12+0, 1
	GOTO       L_main0
	DECFSZ     R11+0, 1
	GOTO       L_main0
	NOP
	NOP
;MyProject.c,202 :: 		Lcd_Cmd(_LCD_CURSOR_OFF);
	MOVLW      12
	MOVWF      FARG_Lcd_Cmd_out_char+0
	CALL       _Lcd_Cmd+0
;MyProject.c,203 :: 		while (1)
L_main1:
;MyProject.c,204 :: 		{          Lcd_Cmd(_LCD_CURSOR_OFF);
	MOVLW      12
	MOVWF      FARG_Lcd_Cmd_out_char+0
	CALL       _Lcd_Cmd+0
;MyProject.c,205 :: 		adcValue = ADC_Read(0);//1000100010101010
	CLRF       FARG_ADC_Read_channel+0
	CALL       _ADC_Read+0
	CALL       _word2double+0
	MOVF       R0+0, 0
	MOVWF      _adcValue+0
	MOVF       R0+1, 0
	MOVWF      _adcValue+1
	MOVF       R0+2, 0
	MOVWF      _adcValue+2
	MOVF       R0+3, 0
	MOVWF      _adcValue+3
;MyProject.c,206 :: 		realvalue=adcValue*0.489;
	MOVLW      53
	MOVWF      R4+0
	MOVLW      94
	MOVWF      R4+1
	MOVLW      122
	MOVWF      R4+2
	MOVLW      125
	MOVWF      R4+3
	CALL       _Mul_32x32_FP+0
	MOVF       R0+0, 0
	MOVWF      _realvalue+0
	MOVF       R0+1, 0
	MOVWF      _realvalue+1
	MOVF       R0+2, 0
	MOVWF      _realvalue+2
	MOVF       R0+3, 0
	MOVWF      _realvalue+3
;MyProject.c,208 :: 		if(intrp_ouv==1 )
	MOVLW      0
	XORWF      _intrp_ouv+1, 0
	BTFSS      STATUS+0, 2
	GOTO       L__main37
	MOVLW      1
	XORWF      _intrp_ouv+0, 0
L__main37:
	BTFSS      STATUS+0, 2
	GOTO       L_main3
;MyProject.c,210 :: 		Lcd_Cmd(_LCD_CLEAR);
	MOVLW      1
	MOVWF      FARG_Lcd_Cmd_out_char+0
	CALL       _Lcd_Cmd+0
;MyProject.c,211 :: 		Lcd_out(1,1,"Arrosage Gazon");
	MOVLW      1
	MOVWF      FARG_Lcd_Out_row+0
	MOVLW      1
	MOVWF      FARG_Lcd_Out_column+0
	MOVLW      ?lstr2_MyProject+0
	MOVWF      FARG_Lcd_Out_text+0
	CALL       _Lcd_Out+0
;MyProject.c,212 :: 		intrp_ouv=0;
	CLRF       _intrp_ouv+0
	CLRF       _intrp_ouv+1
;MyProject.c,213 :: 		delay_ms(500);
	MOVLW      6
	MOVWF      R11+0
	MOVLW      19
	MOVWF      R12+0
	MOVLW      173
	MOVWF      R13+0
L_main4:
	DECFSZ     R13+0, 1
	GOTO       L_main4
	DECFSZ     R12+0, 1
	GOTO       L_main4
	DECFSZ     R11+0, 1
	GOTO       L_main4
	NOP
	NOP
;MyProject.c,214 :: 		}
L_main3:
;MyProject.c,215 :: 		if(intrp_ferm==1  )
	MOVLW      0
	XORWF      _intrp_ferm+1, 0
	BTFSS      STATUS+0, 2
	GOTO       L__main38
	MOVLW      1
	XORWF      _intrp_ferm+0, 0
L__main38:
	BTFSS      STATUS+0, 2
	GOTO       L_main5
;MyProject.c,217 :: 		Lcd_Cmd(_LCD_CLEAR);
	MOVLW      1
	MOVWF      FARG_Lcd_Cmd_out_char+0
	CALL       _Lcd_Cmd+0
;MyProject.c,218 :: 		Lcd_out(1,1,"Fin Arrosage");
	MOVLW      1
	MOVWF      FARG_Lcd_Out_row+0
	MOVLW      1
	MOVWF      FARG_Lcd_Out_column+0
	MOVLW      ?lstr3_MyProject+0
	MOVWF      FARG_Lcd_Out_text+0
	CALL       _Lcd_Out+0
;MyProject.c,219 :: 		intrp_ferm=0;
	CLRF       _intrp_ferm+0
	CLRF       _intrp_ferm+1
;MyProject.c,220 :: 		delay_ms(500);
	MOVLW      6
	MOVWF      R11+0
	MOVLW      19
	MOVWF      R12+0
	MOVLW      173
	MOVWF      R13+0
L_main6:
	DECFSZ     R13+0, 1
	GOTO       L_main6
	DECFSZ     R12+0, 1
	GOTO       L_main6
	DECFSZ     R11+0, 1
	GOTO       L_main6
	NOP
	NOP
;MyProject.c,221 :: 		}
L_main5:
;MyProject.c,222 :: 		if(pluie==1)
	MOVLW      0
	XORWF      _pluie+1, 0
	BTFSS      STATUS+0, 2
	GOTO       L__main39
	MOVLW      1
	XORWF      _pluie+0, 0
L__main39:
	BTFSS      STATUS+0, 2
	GOTO       L_main7
;MyProject.c,224 :: 		Lcd_cmd(_LCD_CLEAR);
	MOVLW      1
	MOVWF      FARG_Lcd_Cmd_out_char+0
	CALL       _Lcd_Cmd+0
;MyProject.c,225 :: 		Lcd_out(1,1,"Pluie !!");
	MOVLW      1
	MOVWF      FARG_Lcd_Out_row+0
	MOVLW      1
	MOVWF      FARG_Lcd_Out_column+0
	MOVLW      ?lstr4_MyProject+0
	MOVWF      FARG_Lcd_Out_text+0
	CALL       _Lcd_Out+0
;MyProject.c,227 :: 		delay_ms(500);
	MOVLW      6
	MOVWF      R11+0
	MOVLW      19
	MOVWF      R12+0
	MOVLW      173
	MOVWF      R13+0
L_main8:
	DECFSZ     R13+0, 1
	GOTO       L_main8
	DECFSZ     R12+0, 1
	GOTO       L_main8
	DECFSZ     R11+0, 1
	GOTO       L_main8
	NOP
	NOP
;MyProject.c,228 :: 		Lcd_cmd(_LCD_CLEAR);
	MOVLW      1
	MOVWF      FARG_Lcd_Cmd_out_char+0
	CALL       _Lcd_Cmd+0
;MyProject.c,229 :: 		Lcd_out(1,1,"Smart Garden");
	MOVLW      1
	MOVWF      FARG_Lcd_Out_row+0
	MOVLW      1
	MOVWF      FARG_Lcd_Out_column+0
	MOVLW      ?lstr5_MyProject+0
	MOVWF      FARG_Lcd_Out_text+0
	CALL       _Lcd_Out+0
;MyProject.c,230 :: 		}
L_main7:
;MyProject.c,232 :: 		if (realvalue >=30 && realvalue<=50)
	MOVLW      0
	MOVWF      R4+0
	MOVLW      0
	MOVWF      R4+1
	MOVLW      112
	MOVWF      R4+2
	MOVLW      131
	MOVWF      R4+3
	MOVF       _realvalue+0, 0
	MOVWF      R0+0
	MOVF       _realvalue+1, 0
	MOVWF      R0+1
	MOVF       _realvalue+2, 0
	MOVWF      R0+2
	MOVF       _realvalue+3, 0
	MOVWF      R0+3
	CALL       _Compare_Double+0
	MOVLW      1
	BTFSS      STATUS+0, 0
	MOVLW      0
	MOVWF      R0+0
	MOVF       R0+0, 0
	BTFSC      STATUS+0, 2
	GOTO       L_main11
	MOVF       _realvalue+0, 0
	MOVWF      R4+0
	MOVF       _realvalue+1, 0
	MOVWF      R4+1
	MOVF       _realvalue+2, 0
	MOVWF      R4+2
	MOVF       _realvalue+3, 0
	MOVWF      R4+3
	MOVLW      0
	MOVWF      R0+0
	MOVLW      0
	MOVWF      R0+1
	MOVLW      72
	MOVWF      R0+2
	MOVLW      132
	MOVWF      R0+3
	CALL       _Compare_Double+0
	MOVLW      1
	BTFSS      STATUS+0, 0
	MOVLW      0
	MOVWF      R0+0
	MOVF       R0+0, 0
	BTFSC      STATUS+0, 2
	GOTO       L_main11
L__main35:
;MyProject.c,233 :: 		test_arrosage=1;
	MOVLW      1
	MOVWF      _test_arrosage+0
	MOVLW      0
	MOVWF      _test_arrosage+1
L_main11:
;MyProject.c,234 :: 		if(realvalue==30)
	MOVLW      0
	MOVWF      R4+0
	MOVLW      0
	MOVWF      R4+1
	MOVLW      112
	MOVWF      R4+2
	MOVLW      131
	MOVWF      R4+3
	MOVF       _realvalue+0, 0
	MOVWF      R0+0
	MOVF       _realvalue+1, 0
	MOVWF      R0+1
	MOVF       _realvalue+2, 0
	MOVWF      R0+2
	MOVF       _realvalue+3, 0
	MOVWF      R0+3
	CALL       _Equals_Double+0
	MOVLW      1
	BTFSS      STATUS+0, 2
	MOVLW      0
	MOVWF      R0+0
	MOVF       R0+0, 0
	BTFSC      STATUS+0, 2
	GOTO       L_main12
;MyProject.c,236 :: 		test_panne = 1;
	MOVLW      1
	MOVWF      _test_panne+0
	MOVLW      0
	MOVWF      _test_panne+1
;MyProject.c,237 :: 		}
L_main12:
;MyProject.c,238 :: 		if(test_arrosage==1&& pluie==0 )
	MOVLW      0
	XORWF      _test_arrosage+1, 0
	BTFSS      STATUS+0, 2
	GOTO       L__main40
	MOVLW      1
	XORWF      _test_arrosage+0, 0
L__main40:
	BTFSS      STATUS+0, 2
	GOTO       L_main15
	MOVLW      0
	XORWF      _pluie+1, 0
	BTFSS      STATUS+0, 2
	GOTO       L__main41
	MOVLW      0
	XORWF      _pluie+0, 0
L__main41:
	BTFSS      STATUS+0, 2
	GOTO       L_main15
L__main34:
;MyProject.c,240 :: 		PORTD.RD5=1;  //Arrosage
	BSF        PORTD+0, 5
;MyProject.c,242 :: 		Lcd_cmd(_LCD_CLEAR);
	MOVLW      1
	MOVWF      FARG_Lcd_Cmd_out_char+0
	CALL       _Lcd_Cmd+0
;MyProject.c,243 :: 		Lcd_out(1,1,"Arrosage Gazon");
	MOVLW      1
	MOVWF      FARG_Lcd_Out_row+0
	MOVLW      1
	MOVWF      FARG_Lcd_Out_column+0
	MOVLW      ?lstr6_MyProject+0
	MOVWF      FARG_Lcd_Out_text+0
	CALL       _Lcd_Out+0
;MyProject.c,244 :: 		test_panne = 1;
	MOVLW      1
	MOVWF      _test_panne+0
	MOVLW      0
	MOVWF      _test_panne+1
;MyProject.c,245 :: 		test_arrosage=0;
	CLRF       _test_arrosage+0
	CLRF       _test_arrosage+1
;MyProject.c,246 :: 		delay_ms(500);
	MOVLW      6
	MOVWF      R11+0
	MOVLW      19
	MOVWF      R12+0
	MOVLW      173
	MOVWF      R13+0
L_main16:
	DECFSZ     R13+0, 1
	GOTO       L_main16
	DECFSZ     R12+0, 1
	GOTO       L_main16
	DECFSZ     R11+0, 1
	GOTO       L_main16
	NOP
	NOP
;MyProject.c,247 :: 		Lcd_cmd(_LCD_CLEAR);
	MOVLW      1
	MOVWF      FARG_Lcd_Cmd_out_char+0
	CALL       _Lcd_Cmd+0
;MyProject.c,248 :: 		Lcd_out(1,1,"Smart Garden");
	MOVLW      1
	MOVWF      FARG_Lcd_Out_row+0
	MOVLW      1
	MOVWF      FARG_Lcd_Out_column+0
	MOVLW      ?lstr7_MyProject+0
	MOVWF      FARG_Lcd_Out_text+0
	CALL       _Lcd_Out+0
;MyProject.c,249 :: 		}
L_main15:
;MyProject.c,250 :: 		if(realvalue>=50){
	MOVLW      0
	MOVWF      R4+0
	MOVLW      0
	MOVWF      R4+1
	MOVLW      72
	MOVWF      R4+2
	MOVLW      132
	MOVWF      R4+3
	MOVF       _realvalue+0, 0
	MOVWF      R0+0
	MOVF       _realvalue+1, 0
	MOVWF      R0+1
	MOVF       _realvalue+2, 0
	MOVWF      R0+2
	MOVF       _realvalue+3, 0
	MOVWF      R0+3
	CALL       _Compare_Double+0
	MOVLW      1
	BTFSS      STATUS+0, 0
	MOVLW      0
	MOVWF      R0+0
	MOVF       R0+0, 0
	BTFSC      STATUS+0, 2
	GOTO       L_main17
;MyProject.c,251 :: 		test_arrosage =0;
	CLRF       _test_arrosage+0
	CLRF       _test_arrosage+1
;MyProject.c,252 :: 		PORTD.RD5=0;      //Arrosage
	BCF        PORTD+0, 5
;MyProject.c,254 :: 		Lcd_cmd(_LCD_CLEAR);
	MOVLW      1
	MOVWF      FARG_Lcd_Cmd_out_char+0
	CALL       _Lcd_Cmd+0
;MyProject.c,255 :: 		Lcd_out(1,1,"Fin Arrosage");
	MOVLW      1
	MOVWF      FARG_Lcd_Out_row+0
	MOVLW      1
	MOVWF      FARG_Lcd_Out_column+0
	MOVLW      ?lstr8_MyProject+0
	MOVWF      FARG_Lcd_Out_text+0
	CALL       _Lcd_Out+0
;MyProject.c,256 :: 		delay_ms(1000);
	MOVLW      11
	MOVWF      R11+0
	MOVLW      38
	MOVWF      R12+0
	MOVLW      93
	MOVWF      R13+0
L_main18:
	DECFSZ     R13+0, 1
	GOTO       L_main18
	DECFSZ     R12+0, 1
	GOTO       L_main18
	DECFSZ     R11+0, 1
	GOTO       L_main18
	NOP
	NOP
;MyProject.c,257 :: 		Lcd_cmd(_LCD_CLEAR);
	MOVLW      1
	MOVWF      FARG_Lcd_Cmd_out_char+0
	CALL       _Lcd_Cmd+0
;MyProject.c,258 :: 		Lcd_out(1,1,"Smart Garden!!");
	MOVLW      1
	MOVWF      FARG_Lcd_Out_row+0
	MOVLW      1
	MOVWF      FARG_Lcd_Out_column+0
	MOVLW      ?lstr9_MyProject+0
	MOVWF      FARG_Lcd_Out_text+0
	CALL       _Lcd_Out+0
;MyProject.c,259 :: 		test_panne = 1;
	MOVLW      1
	MOVWF      _test_panne+0
	MOVLW      0
	MOVWF      _test_panne+1
;MyProject.c,260 :: 		delay_ms(1000);
	MOVLW      11
	MOVWF      R11+0
	MOVLW      38
	MOVWF      R12+0
	MOVLW      93
	MOVWF      R13+0
L_main19:
	DECFSZ     R13+0, 1
	GOTO       L_main19
	DECFSZ     R12+0, 1
	GOTO       L_main19
	DECFSZ     R11+0, 1
	GOTO       L_main19
	NOP
	NOP
;MyProject.c,261 :: 		}
L_main17:
;MyProject.c,262 :: 		if(realvalue<=29)
	MOVF       _realvalue+0, 0
	MOVWF      R4+0
	MOVF       _realvalue+1, 0
	MOVWF      R4+1
	MOVF       _realvalue+2, 0
	MOVWF      R4+2
	MOVF       _realvalue+3, 0
	MOVWF      R4+3
	MOVLW      0
	MOVWF      R0+0
	MOVLW      0
	MOVWF      R0+1
	MOVLW      104
	MOVWF      R0+2
	MOVLW      131
	MOVWF      R0+3
	CALL       _Compare_Double+0
	MOVLW      1
	BTFSS      STATUS+0, 0
	MOVLW      0
	MOVWF      R0+0
	MOVF       R0+0, 0
	BTFSC      STATUS+0, 2
	GOTO       L_main20
;MyProject.c,264 :: 		test_arrosage =0;
	CLRF       _test_arrosage+0
	CLRF       _test_arrosage+1
;MyProject.c,265 :: 		PORTD.RD5=0; //Arrosage
	BCF        PORTD+0, 5
;MyProject.c,267 :: 		INTCON.T0IE=1;   //ACTIVATION TIMER
	BSF        INTCON+0, 5
;MyProject.c,268 :: 		TMR0 = 0;
	CLRF       TMR0+0
;MyProject.c,269 :: 		OPTION_REG=0b00000101;
	MOVLW      5
	MOVWF      OPTION_REG+0
;MyProject.c,270 :: 		NB= 183; // 5min -> NB=36600 NB=duree/(256*0.5*prediviseur(64))
	MOVLW      183
	MOVWF      _NB+0
	CLRF       _NB+1
;MyProject.c,272 :: 		Lcd_cmd(_LCD_CLEAR);
	MOVLW      1
	MOVWF      FARG_Lcd_Cmd_out_char+0
	CALL       _Lcd_Cmd+0
;MyProject.c,274 :: 		if (test_panne == 1)  {
	MOVLW      0
	XORWF      _test_panne+1, 0
	BTFSS      STATUS+0, 2
	GOTO       L__main42
	MOVLW      1
	XORWF      _test_panne+0, 0
L__main42:
	BTFSS      STATUS+0, 2
	GOTO       L_main21
;MyProject.c,275 :: 		nb_panne++;
	INCF       _nb_panne+0, 1
	BTFSC      STATUS+0, 2
	INCF       _nb_panne+1, 1
;MyProject.c,276 :: 		PORTD.RD6=1;
	BSF        PORTD+0, 6
;MyProject.c,277 :: 		test_panne = 0;
	CLRF       _test_panne+0
	CLRF       _test_panne+1
;MyProject.c,278 :: 		}
L_main21:
;MyProject.c,279 :: 		Lcd_out(2,1,"Panne");
	MOVLW      2
	MOVWF      FARG_Lcd_Out_row+0
	MOVLW      1
	MOVWF      FARG_Lcd_Out_column+0
	MOVLW      ?lstr10_MyProject+0
	MOVWF      FARG_Lcd_Out_text+0
	CALL       _Lcd_Out+0
;MyProject.c,280 :: 		delay_ms(1500);
	MOVLW      16
	MOVWF      R11+0
	MOVLW      57
	MOVWF      R12+0
	MOVLW      13
	MOVWF      R13+0
L_main22:
	DECFSZ     R13+0, 1
	GOTO       L_main22
	DECFSZ     R12+0, 1
	GOTO       L_main22
	DECFSZ     R11+0, 1
	GOTO       L_main22
	NOP
	NOP
;MyProject.c,281 :: 		Lcd_cmd(_LCD_CLEAR);
	MOVLW      1
	MOVWF      FARG_Lcd_Cmd_out_char+0
	CALL       _Lcd_Cmd+0
;MyProject.c,282 :: 		PORTD.RD6=0;
	BCF        PORTD+0, 6
;MyProject.c,283 :: 		Lcd_out(1,1,"Smart Garden");
	MOVLW      1
	MOVWF      FARG_Lcd_Out_row+0
	MOVLW      1
	MOVWF      FARG_Lcd_Out_column+0
	MOVLW      ?lstr11_MyProject+0
	MOVWF      FARG_Lcd_Out_text+0
	CALL       _Lcd_Out+0
;MyProject.c,284 :: 		}
L_main20:
;MyProject.c,285 :: 		if (consulter == 1)
	MOVLW      0
	XORWF      _consulter+1, 0
	BTFSS      STATUS+0, 2
	GOTO       L__main43
	MOVLW      1
	XORWF      _consulter+0, 0
L__main43:
	BTFSS      STATUS+0, 2
	GOTO       L_main23
;MyProject.c,287 :: 		Lcd_cmd(_LCD_CLEAR);
	MOVLW      1
	MOVWF      FARG_Lcd_Cmd_out_char+0
	CALL       _Lcd_Cmd+0
;MyProject.c,288 :: 		EEPROM_Write(ADDRESS, nb_panne);
	CLRF       FARG_EEPROM_Write_Address+0
	MOVF       _nb_panne+0, 0
	MOVWF      FARG_EEPROM_Write_data_+0
	CALL       _EEPROM_Write+0
;MyProject.c,289 :: 		variable = EEPROM_Read(ADDRESS);
	CLRF       FARG_EEPROM_Read_Address+0
	CALL       _EEPROM_Read+0
	MOVF       R0+0, 0
	MOVWF      _variable+0
	CLRF       _variable+1
;MyProject.c,290 :: 		Lcd_out(1,1,"Nombre de panne:");
	MOVLW      1
	MOVWF      FARG_Lcd_Out_row+0
	MOVLW      1
	MOVWF      FARG_Lcd_Out_column+0
	MOVLW      ?lstr12_MyProject+0
	MOVWF      FARG_Lcd_Out_text+0
	CALL       _Lcd_Out+0
;MyProject.c,291 :: 		InttoStr(variable,string_variable);
	MOVF       _variable+0, 0
	MOVWF      FARG_IntToStr_input+0
	MOVF       _variable+1, 0
	MOVWF      FARG_IntToStr_input+1
	MOVLW      _string_variable+0
	MOVWF      FARG_IntToStr_output+0
	CALL       _IntToStr+0
;MyProject.c,292 :: 		Lcd_out(2,1,string_variable);
	MOVLW      2
	MOVWF      FARG_Lcd_Out_row+0
	MOVLW      1
	MOVWF      FARG_Lcd_Out_column+0
	MOVLW      _string_variable+0
	MOVWF      FARG_Lcd_Out_text+0
	CALL       _Lcd_Out+0
;MyProject.c,293 :: 		consulter=0;
	CLRF       _consulter+0
	CLRF       _consulter+1
;MyProject.c,294 :: 		delay_ms(500);
	MOVLW      6
	MOVWF      R11+0
	MOVLW      19
	MOVWF      R12+0
	MOVLW      173
	MOVWF      R13+0
L_main24:
	DECFSZ     R13+0, 1
	GOTO       L_main24
	DECFSZ     R12+0, 1
	GOTO       L_main24
	DECFSZ     R11+0, 1
	GOTO       L_main24
	NOP
	NOP
;MyProject.c,295 :: 		}
L_main23:
;MyProject.c,296 :: 		}
	GOTO       L_main1
;MyProject.c,297 :: 		}
L_end_main:
	GOTO       $+0
; end of _main

_interrupt:
	MOVWF      R15+0
	SWAPF      STATUS+0, 0
	CLRF       STATUS+0
	MOVWF      ___saveSTATUS+0
	MOVF       PCLATH+0, 0
	MOVWF      ___savePCLATH+0
	CLRF       PCLATH+0

;MyProject.c,300 :: 		void interrupt()
;MyProject.c,301 :: 		{    if(INTCON.T0IF==1){
	BTFSS      INTCON+0, 2
	GOTO       L_interrupt25
;MyProject.c,302 :: 		INTCON.T0IF=0;
	BCF        INTCON+0, 2
;MyProject.c,303 :: 		NB--;
	MOVLW      1
	SUBWF      _NB+0, 1
	BTFSS      STATUS+0, 0
	DECF       _NB+1, 1
;MyProject.c,305 :: 		if(NB==0){
	MOVLW      0
	XORWF      _NB+1, 0
	BTFSS      STATUS+0, 2
	GOTO       L__interrupt46
	MOVLW      0
	XORWF      _NB+0, 0
L__interrupt46:
	BTFSS      STATUS+0, 2
	GOTO       L_interrupt26
;MyProject.c,306 :: 		PORTD.RD6=0;
	BCF        PORTD+0, 6
;MyProject.c,307 :: 		INTCON.T0IE=0; //desactiver timer
	BCF        INTCON+0, 5
;MyProject.c,308 :: 		}
L_interrupt26:
;MyProject.c,309 :: 		}
L_interrupt25:
;MyProject.c,310 :: 		if(INTCON.INTF==1)
	BTFSS      INTCON+0, 1
	GOTO       L_interrupt27
;MyProject.c,312 :: 		if(PORTB.RB0==1)
	BTFSS      PORTB+0, 0
	GOTO       L_interrupt28
;MyProject.c,314 :: 		PORTD.RD5 = 0;
	BCF        PORTD+0, 5
;MyProject.c,316 :: 		pluie=1;
	MOVLW      1
	MOVWF      _pluie+0
	MOVLW      0
	MOVWF      _pluie+1
;MyProject.c,317 :: 		}
L_interrupt28:
;MyProject.c,318 :: 		INTCON.INTF=0;   //Fin Pluie
	BCF        INTCON+0, 1
;MyProject.c,320 :: 		}else if(INTCON.RBIF==1)
	GOTO       L_interrupt29
L_interrupt27:
	BTFSS      INTCON+0, 0
	GOTO       L_interrupt30
;MyProject.c,322 :: 		if(PORTB.RB4==1)
	BTFSS      PORTB+0, 4
	GOTO       L_interrupt31
;MyProject.c,324 :: 		PORTD.RD5=1; //Arrosage
	BSF        PORTD+0, 5
;MyProject.c,326 :: 		intrp_ouv=1;
	MOVLW      1
	MOVWF      _intrp_ouv+0
	MOVLW      0
	MOVWF      _intrp_ouv+1
;MyProject.c,327 :: 		}
L_interrupt31:
;MyProject.c,328 :: 		if(PORTB.RB4==0)
	BTFSC      PORTB+0, 4
	GOTO       L_interrupt32
;MyProject.c,330 :: 		PORTD.RD5=0; //Arrosage
	BCF        PORTD+0, 5
;MyProject.c,332 :: 		intrp_ferm=1;
	MOVLW      1
	MOVWF      _intrp_ferm+0
	MOVLW      0
	MOVWF      _intrp_ferm+1
;MyProject.c,333 :: 		}
L_interrupt32:
;MyProject.c,334 :: 		if(PORTB.RB5==1)
	BTFSS      PORTB+0, 5
	GOTO       L_interrupt33
;MyProject.c,336 :: 		consulter=1; //consulter le nombre de panne
	MOVLW      1
	MOVWF      _consulter+0
	MOVLW      0
	MOVWF      _consulter+1
;MyProject.c,337 :: 		}
L_interrupt33:
;MyProject.c,339 :: 		INTCON.RBIF=0;
	BCF        INTCON+0, 0
;MyProject.c,341 :: 		}
L_interrupt30:
L_interrupt29:
;MyProject.c,342 :: 		}
L_end_interrupt:
L__interrupt45:
	MOVF       ___savePCLATH+0, 0
	MOVWF      PCLATH+0
	SWAPF      ___saveSTATUS+0, 0
	MOVWF      STATUS+0
	SWAPF      R15+0, 1
	SWAPF      R15+0, 0
	RETFIE
; end of _interrupt
